target datalayout = "e-m:e-p270:32:32-p271:32:32-p272:64:64-i64:64-i128:128-f80:128-n8:16:32:64-S128"
target triple = "x86_64-unknown-linux-gnu"

%"class.YAML::NodeBuilder" = type { %"class.YAML::EventHandler", %"class.std::shared_ptr", ptr, %"class.std::vector", %"class.std::vector", %"class.std::vector.0", i64 }
%"class.YAML::EventHandler" = type { ptr }
%"class.std::shared_ptr" = type { %"class.std::__shared_ptr" }
%"class.std::__shared_ptr" = type { ptr, %"class.std::__shared_count" }
%"class.std::__shared_count" = type { ptr }
%"class.std::vector" = type { %"struct.std::_Vector_base" }
%"struct.std::_Vector_base" = type { %"struct.std::_Vector_base<YAML::detail::node *, std::allocator<YAML::detail::node *>>::_Vector_impl" }
%"struct.std::_Vector_base<YAML::detail::node *, std::allocator<YAML::detail::node *>>::_Vector_impl" = type { %"struct.std::_Vector_base<YAML::detail::node *, std::allocator<YAML::detail::node *>>::_Vector_impl_data" }
%"struct.std::_Vector_base<YAML::detail::node *, std::allocator<YAML::detail::node *>>::_Vector_impl_data" = type { ptr, ptr, ptr }
%"class.std::vector.0" = type { %"struct.std::_Vector_base.1" }
%"struct.std::_Vector_base.1" = type { %"struct.std::_Vector_base<std::pair<YAML::detail::node *, bool>, std::allocator<std::pair<YAML::detail::node *, bool>>>::_Vector_impl" }
%"struct.std::_Vector_base<std::pair<YAML::detail::node *, bool>, std::allocator<std::pair<YAML::detail::node *, bool>>>::_Vector_impl" = type { %"struct.std::_Vector_base<std::pair<YAML::detail::node *, bool>, std::allocator<std::pair<YAML::detail::node *, bool>>>::_Vector_impl_data" }
%"struct.std::_Vector_base<std::pair<YAML::detail::node *, bool>, std::allocator<std::pair<YAML::detail::node *, bool>>>::_Vector_impl_data" = type { ptr, ptr, ptr }
%"class.YAML::detail::node" = type { %"class.std::shared_ptr.11", %"class.std::set", i64 }
%"class.std::shared_ptr.11" = type { %"class.std::__shared_ptr.12" }
%"class.std::__shared_ptr.12" = type { ptr, %"class.std::__shared_count" }
%"class.std::set" = type { %"class.std::_Rb_tree" }
%"class.std::_Rb_tree" = type { %"struct.std::_Rb_tree<YAML::detail::node *, YAML::detail::node *, std::_Identity<YAML::detail::node *>, YAML::detail::node::less>::_Rb_tree_impl" }
%"struct.std::_Rb_tree<YAML::detail::node *, YAML::detail::node *, std::_Identity<YAML::detail::node *>, YAML::detail::node::less>::_Rb_tree_impl" = type { %"struct.std::_Rb_tree_key_compare", %"struct.std::_Rb_tree_header" }
%"struct.std::_Rb_tree_key_compare" = type { %"struct.YAML::detail::node::less" }
%"struct.YAML::detail::node::less" = type { i8 }
%"struct.std::_Rb_tree_header" = type { %"struct.std::_Rb_tree_node_base", i64 }
%"struct.std::_Rb_tree_node_base" = type { i32, ptr, ptr, ptr }
%"class.YAML::detail::node_ref" = type { %"class.std::shared_ptr.26" }
%"class.std::shared_ptr.26" = type { %"class.std::__shared_ptr.27" }
%"class.std::__shared_ptr.27" = type { ptr, %"class.std::__shared_count" }

; Function Attrs: mustprogress nounwind uwtable
define linkonce_odr noundef ptr @_ZNKSt12__shared_ptrIN4YAML6detail9node_dataELN9__gnu_cxx12_Lock_policyE2EE3getEv(ptr noundef nonnull align 8 dereferenceable(16) %this) #1 comdat align 2 {
entry:
  %this.addr = alloca ptr, align 8
  store ptr %this, ptr %this.addr, align 8
  %this1 = load ptr, ptr %this.addr, align 8
  %_M_ptr = getelementptr inbounds %"class.std::__shared_ptr.27", ptr %this1, i32 0, i32 0
  %0 = load ptr, ptr %_M_ptr, align 8
  ret ptr %0
}

; Function Attrs: mustprogress nounwind uwtable
define linkonce_odr noundef ptr @_ZNKSt19__shared_ptr_accessIN4YAML6detail9node_dataELN9__gnu_cxx12_Lock_policyE2ELb0ELb0EE6_M_getEv(ptr noundef nonnull align 1 dereferenceable(1) %this) #1 comdat align 2 {
entry:
  %this.addr = alloca ptr, align 8
  store ptr %this, ptr %this.addr, align 8
  %this1 = load ptr, ptr %this.addr, align 8
  %call = call noundef ptr @_ZNKSt12__shared_ptrIN4YAML6detail9node_dataELN9__gnu_cxx12_Lock_policyE2EE3getEv(ptr noundef nonnull align 8 dereferenceable(16) %this1) #12
  ret ptr %call
}

; Function Attrs: mustprogress nounwind uwtable
define linkonce_odr noundef ptr @_ZNKSt12__shared_ptrIN4YAML6detail8node_refELN9__gnu_cxx12_Lock_policyE2EE3getEv(ptr noundef nonnull align 8 dereferenceable(16) %this) #1 comdat align 2 {
entry:
  %this.addr = alloca ptr, align 8
  store ptr %this, ptr %this.addr, align 8
  %this1 = load ptr, ptr %this.addr, align 8
  %_M_ptr = getelementptr inbounds %"class.std::__shared_ptr.12", ptr %this1, i32 0, i32 0
  %0 = load ptr, ptr %_M_ptr, align 8
  ret ptr %0
}

; Function Attrs: mustprogress nounwind uwtable
define linkonce_odr noundef ptr @_ZNKSt19__shared_ptr_accessIN4YAML6detail9node_dataELN9__gnu_cxx12_Lock_policyE2ELb0ELb0EEptEv(ptr noundef nonnull align 1 dereferenceable(1) %this) #1 comdat align 2 {
entry:
  %this.addr = alloca ptr, align 8
  store ptr %this, ptr %this.addr, align 8
  %this1 = load ptr, ptr %this.addr, align 8
  %call = call noundef ptr @_ZNKSt19__shared_ptr_accessIN4YAML6detail9node_dataELN9__gnu_cxx12_Lock_policyE2ELb0ELb0EE6_M_getEv(ptr noundef nonnull align 1 dereferenceable(1) %this1) #12
  ret ptr %call
}

; Function Attrs: mustprogress nounwind uwtable
define linkonce_odr noundef ptr @_ZNKSt19__shared_ptr_accessIN4YAML6detail8node_refELN9__gnu_cxx12_Lock_policyE2ELb0ELb0EE6_M_getEv(ptr noundef nonnull align 1 dereferenceable(1) %this) #1 comdat align 2 {
entry:
  %this.addr = alloca ptr, align 8
  store ptr %this, ptr %this.addr, align 8
  %this1 = load ptr, ptr %this.addr, align 8
  %call = call noundef ptr @_ZNKSt12__shared_ptrIN4YAML6detail8node_refELN9__gnu_cxx12_Lock_policyE2EE3getEv(ptr noundef nonnull align 8 dereferenceable(16) %this1) #12
  ret ptr %call
}

; Function Attrs: mustprogress uwtable
define linkonce_odr void @_ZN4YAML6detail8node_ref9set_styleENS_12EmitterStyle5valueE(ptr noundef nonnull align 8 dereferenceable(16) %this, i32 noundef %style) #0 comdat align 2 {
entry:
  %this.addr = alloca ptr, align 8
  %style.addr = alloca i32, align 4
  store ptr %this, ptr %this.addr, align 8
  store i32 %style, ptr %style.addr, align 4
  %this1 = load ptr, ptr %this.addr, align 8
  %m_pData = getelementptr inbounds %"class.YAML::detail::node_ref", ptr %this1, i32 0, i32 0
  %call = call noundef ptr @_ZNKSt19__shared_ptr_accessIN4YAML6detail9node_dataELN9__gnu_cxx12_Lock_policyE2ELb0ELb0EEptEv(ptr noundef nonnull align 1 dereferenceable(1) %m_pData) #12
  %0 = load i32, ptr %style.addr, align 4
  call void @_ZN4YAML6detail9node_data9set_styleENS_12EmitterStyle5valueE(ptr noundef nonnull align 8 dereferenceable(176) %call, i32 noundef %0)
  ret void
}

; Function Attrs: mustprogress uwtable
define linkonce_odr void @_ZN4YAML6detail8node_ref7set_tagERKNSt7__cxx1112basic_stringIcSt11char_traitsIcESaIcEEE(ptr noundef nonnull align 8 dereferenceable(16) %this, ptr noundef nonnull align 8 dereferenceable(32) %tag) #0 comdat align 2 {
entry:
  %this.addr = alloca ptr, align 8
  %tag.addr = alloca ptr, align 8
  store ptr %this, ptr %this.addr, align 8
  store ptr %tag, ptr %tag.addr, align 8
  %this1 = load ptr, ptr %this.addr, align 8
  %m_pData = getelementptr inbounds %"class.YAML::detail::node_ref", ptr %this1, i32 0, i32 0
  %call = call noundef ptr @_ZNKSt19__shared_ptr_accessIN4YAML6detail9node_dataELN9__gnu_cxx12_Lock_policyE2ELb0ELb0EEptEv(ptr noundef nonnull align 1 dereferenceable(1) %m_pData) #12
  %0 = load ptr, ptr %tag.addr, align 8
  call void @_ZN4YAML6detail9node_data7set_tagERKNSt7__cxx1112basic_stringIcSt11char_traitsIcESaIcEEE(ptr noundef nonnull align 8 dereferenceable(176) %call, ptr noundef nonnull align 8 dereferenceable(32) %0)
  ret void
}

; Function Attrs: mustprogress uwtable
define linkonce_odr void @_ZN4YAML6detail8node_ref8set_typeENS_8NodeType5valueE(ptr noundef nonnull align 8 dereferenceable(16) %this, i32 noundef %type) #0 comdat align 2 {
entry:
  %this.addr = alloca ptr, align 8
  %type.addr = alloca i32, align 4
  store ptr %this, ptr %this.addr, align 8
  store i32 %type, ptr %type.addr, align 4
  %this1 = load ptr, ptr %this.addr, align 8
  %m_pData = getelementptr inbounds %"class.YAML::detail::node_ref", ptr %this1, i32 0, i32 0
  %call = call noundef ptr @_ZNKSt19__shared_ptr_accessIN4YAML6detail9node_dataELN9__gnu_cxx12_Lock_policyE2ELb0ELb0EEptEv(ptr noundef nonnull align 1 dereferenceable(1) %m_pData) #12
  %0 = load i32, ptr %type.addr, align 4
  call void @_ZN4YAML6detail9node_data8set_typeENS_8NodeType5valueE(ptr noundef nonnull align 8 dereferenceable(176) %call, i32 noundef %0)
  ret void
}

; Function Attrs: mustprogress nounwind uwtable
define linkonce_odr noundef ptr @_ZNKSt19__shared_ptr_accessIN4YAML6detail8node_refELN9__gnu_cxx12_Lock_policyE2ELb0ELb0EEptEv(ptr noundef nonnull align 1 dereferenceable(1) %this) #1 comdat align 2 {
entry:
  %this.addr = alloca ptr, align 8
  store ptr %this, ptr %this.addr, align 8
  %this1 = load ptr, ptr %this.addr, align 8
  %call = call noundef ptr @_ZNKSt19__shared_ptr_accessIN4YAML6detail8node_refELN9__gnu_cxx12_Lock_policyE2ELb0ELb0EE6_M_getEv(ptr noundef nonnull align 1 dereferenceable(1) %this1) #12
  ret ptr %call
}

; Function Attrs: mustprogress uwtable
define linkonce_odr void @_ZN4YAML6detail4node9set_styleENS_12EmitterStyle5valueE(ptr noundef nonnull align 8 dereferenceable(72) %this, i32 noundef %style) #0 comdat align 2 {
entry:
  %this.addr = alloca ptr, align 8
  %style.addr = alloca i32, align 4
  store ptr %this, ptr %this.addr, align 8
  store i32 %style, ptr %style.addr, align 4
  %this1 = load ptr, ptr %this.addr, align 8
  call void @_ZN4YAML6detail4node12mark_definedEv(ptr noundef nonnull align 8 dereferenceable(72) %this1)
  %m_pRef = getelementptr inbounds %"class.YAML::detail::node", ptr %this1, i32 0, i32 0
  %call = call noundef ptr @_ZNKSt19__shared_ptr_accessIN4YAML6detail8node_refELN9__gnu_cxx12_Lock_policyE2ELb0ELb0EEptEv(ptr noundef nonnull align 1 dereferenceable(1) %m_pRef) #12
  %0 = load i32, ptr %style.addr, align 4
  call void @_ZN4YAML6detail8node_ref9set_styleENS_12EmitterStyle5valueE(ptr noundef nonnull align 8 dereferenceable(16) %call, i32 noundef %0)
  ret void
}

; Function Attrs: mustprogress uwtable
define linkonce_odr void @_ZN4YAML6detail4node7set_tagERKNSt7__cxx1112basic_stringIcSt11char_traitsIcESaIcEEE(ptr noundef nonnull align 8 dereferenceable(72) %this, ptr noundef nonnull align 8 dereferenceable(32) %tag) #0 comdat align 2 {
entry:
  %this.addr = alloca ptr, align 8
  %tag.addr = alloca ptr, align 8
  store ptr %this, ptr %this.addr, align 8
  store ptr %tag, ptr %tag.addr, align 8
  %this1 = load ptr, ptr %this.addr, align 8
  call void @_ZN4YAML6detail4node12mark_definedEv(ptr noundef nonnull align 8 dereferenceable(72) %this1)
  %m_pRef = getelementptr inbounds %"class.YAML::detail::node", ptr %this1, i32 0, i32 0
  %call = call noundef ptr @_ZNKSt19__shared_ptr_accessIN4YAML6detail8node_refELN9__gnu_cxx12_Lock_policyE2ELb0ELb0EEptEv(ptr noundef nonnull align 1 dereferenceable(1) %m_pRef) #12
  %0 = load ptr, ptr %tag.addr, align 8
  call void @_ZN4YAML6detail8node_ref7set_tagERKNSt7__cxx1112basic_stringIcSt11char_traitsIcESaIcEEE(ptr noundef nonnull align 8 dereferenceable(16) %call, ptr noundef nonnull align 8 dereferenceable(32) %0)
  ret void
}

; Function Attrs: mustprogress uwtable
define linkonce_odr void @_ZN4YAML6detail4node8set_typeENS_8NodeType5valueE(ptr noundef nonnull align 8 dereferenceable(72) %this, i32 noundef %type) #0 comdat align 2 {
entry:
  %this.addr = alloca ptr, align 8
  %type.addr = alloca i32, align 4
  store ptr %this, ptr %this.addr, align 8
  store i32 %type, ptr %type.addr, align 4
  %this1 = load ptr, ptr %this.addr, align 8
  %0 = load i32, ptr %type.addr, align 4
  %cmp = icmp ne i32 %0, 0
  br i1 %cmp, label %if.then, label %if.end

if.then:                                          ; preds = %entry
  call void @_ZN4YAML6detail4node12mark_definedEv(ptr noundef nonnull align 8 dereferenceable(72) %this1)
  br label %if.end

if.end:                                           ; preds = %if.then, %entry
  %m_pRef = getelementptr inbounds %"class.YAML::detail::node", ptr %this1, i32 0, i32 0
  %call = call noundef ptr @_ZNKSt19__shared_ptr_accessIN4YAML6detail8node_refELN9__gnu_cxx12_Lock_policyE2ELb0ELb0EEptEv(ptr noundef nonnull align 1 dereferenceable(1) %m_pRef) #12
  %1 = load i32, ptr %type.addr, align 4
  call void @_ZN4YAML6detail8node_ref8set_typeENS_8NodeType5valueE(ptr noundef nonnull align 8 dereferenceable(16) %call, i32 noundef %1)
  ret void
}

; Function Attrs: mustprogress uwtable
define void @_ZN4YAML11NodeBuilder10OnMapStartERKNS_4MarkERKNSt7__cxx1112basic_stringIcSt11char_traitsIcESaIcEEEmNS_12EmitterStyle5valueE(ptr noundef nonnull align 8 dereferenceable(112) %this, ptr noundef nonnull align 4 dereferenceable(12) %mark, ptr noundef nonnull align 8 dereferenceable(32) %tag, i64 noundef %anchor, i32 noundef %style) unnamed_addr #0 align 2 {
entry:
  %this.addr = alloca ptr, align 8
  %mark.addr = alloca ptr, align 8
  %tag.addr = alloca ptr, align 8
  %anchor.addr = alloca i64, align 8
  %style.addr = alloca i32, align 4
  %node = alloca ptr, align 8
  store ptr %this, ptr %this.addr, align 8
  store ptr %mark, ptr %mark.addr, align 8
  store ptr %tag, ptr %tag.addr, align 8
  store i64 %anchor, ptr %anchor.addr, align 8
  store i32 %style, ptr %style.addr, align 4
  %this1 = load ptr, ptr %this.addr, align 8
  %0 = load ptr, ptr %mark.addr, align 8
  %1 = load i64, ptr %anchor.addr, align 8
  %call = call noundef nonnull align 8 dereferenceable(72) ptr @_ZN4YAML11NodeBuilder4PushERKNS_4MarkEm(ptr noundef nonnull align 8 dereferenceable(112) %this1, ptr noundef nonnull align 4 dereferenceable(12) %0, i64 noundef %1)
  store ptr %call, ptr %node, align 8
  %2 = load ptr, ptr %node, align 8
  call void @_ZN4YAML6detail4node8set_typeENS_8NodeType5valueE(ptr noundef nonnull align 8 dereferenceable(72) %2, i32 noundef 4)
  %3 = load ptr, ptr %node, align 8
  %4 = load ptr, ptr %tag.addr, align 8
  call void @_ZN4YAML6detail4node7set_tagERKNSt7__cxx1112basic_stringIcSt11char_traitsIcESaIcEEE(ptr noundef nonnull align 8 dereferenceable(72) %3, ptr noundef nonnull align 8 dereferenceable(32) %4)
  %5 = load ptr, ptr %node, align 8
  %6 = load i32, ptr %style.addr, align 4
  call void @_ZN4YAML6detail4node9set_styleENS_12EmitterStyle5valueE(ptr noundef nonnull align 8 dereferenceable(72) %5, i32 noundef %6)
  %m_mapDepth = getelementptr inbounds %"class.YAML::NodeBuilder", ptr %this1, i32 0, i32 6
  %7 = load i64, ptr %m_mapDepth, align 8
  %inc = add i64 %7, 1
  store i64 %inc, ptr %m_mapDepth, align 8
  ret void
}