; Function Attrs: mustprogress uwtable
define void @_ZN4YAML11NodeBuilder10OnMapStartERKNS_4MarkERKNSt7__cxx1112basic_stringIcSt11char_traitsIcESaIcEEEmNS_12EmitterStyle5valueE(ptr nocapture noundef nonnull align 8 dereferenceable(112) %this, ptr noundef nonnull align 4 dereferenceable(12) %mark, ptr noundef nonnull align 8 dereferenceable(32) %tag, i64 noundef %anchor, i32 noundef %style) unnamed_addr #0 align 2 {
entry:
  %call = tail call noundef nonnull align 8 dereferenceable(72) ptr @_ZN4YAML11NodeBuilder4PushERKNS_4MarkEm(ptr noundef nonnull align 8 dereferenceable(112) %this, ptr noundef nonnull align 4 dereferenceable(12) %mark, i64 noundef %anchor)
  tail call void @_ZN4YAML6detail4node12mark_definedEv(ptr noundef nonnull align 8 dereferenceable(72) %call)
  %0 = load ptr, ptr %call, align 8
  %1 = load ptr, ptr %0, align 8
  tail call void @_ZN4YAML6detail9node_data8set_typeENS_8NodeType5valueE(ptr noundef nonnull align 8 dereferenceable(176) %1, i32 noundef 4)
  tail call void @_ZN4YAML6detail4node12mark_definedEv(ptr noundef nonnull align 8 dereferenceable(72) %call)
  %2 = load ptr, ptr %call, align 8
  %3 = load ptr, ptr %2, align 8
  tail call void @_ZN4YAML6detail9node_data7set_tagERKNSt7__cxx1112basic_stringIcSt11char_traitsIcESaIcEEE(ptr noundef nonnull align 8 dereferenceable(176) %3, ptr noundef nonnull align 8 dereferenceable(32) %tag)
  tail call void @_ZN4YAML6detail4node12mark_definedEv(ptr noundef nonnull align 8 dereferenceable(72) %call)
  %4 = load ptr, ptr %call, align 8
  %5 = load ptr, ptr %4, align 8
  tail call void @_ZN4YAML6detail9node_data9set_styleENS_12EmitterStyle5valueE(ptr noundef nonnull align 8 dereferenceable(176) %5, i32 noundef %style)
  %m_mapDepth = getelementptr inbounds i8, ptr %this, i64 104
  %6 = load i64, ptr %m_mapDepth, align 8
  %inc = add i64 %6, 1
  store i64 %inc, ptr %m_mapDepth, align 8
  ret void
}